target datalayout = "e-m:e-p270:32:32-p271:32:32-p272:64:64-i64:64-i128:128-f80:128-n8:16:32:64-S128"
target triple = "x86_64-pc-linux-gnu"

; Function Attrs: mustprogress nounwind uwtable
define dso_local void @_ZN3igl5crossEPKdS1_Pd(ptr noundef %0, ptr noundef %1, ptr noundef %2) #1 {
  %4 = alloca ptr, align 8
  %5 = alloca ptr, align 8
  %6 = alloca ptr, align 8
  store ptr %0, ptr %4, align 8, !tbaa !15
  store ptr %1, ptr %5, align 8, !tbaa !15
  store ptr %2, ptr %6, align 8, !tbaa !15
  %7 = load ptr, ptr %4, align 8, !tbaa !15
  %8 = getelementptr inbounds double, ptr %7, i64 1
  %9 = load double, ptr %8, align 8, !tbaa !17
  %10 = load ptr, ptr %5, align 8, !tbaa !15
  %11 = getelementptr inbounds double, ptr %10, i64 2
  %12 = load double, ptr %11, align 8, !tbaa !17
  %13 = load ptr, ptr %4, align 8, !tbaa !15
  %14 = getelementptr inbounds double, ptr %13, i64 2
  %15 = load double, ptr %14, align 8, !tbaa !17
  %16 = load ptr, ptr %5, align 8, !tbaa !15
  %17 = getelementptr inbounds double, ptr %16, i64 1
  %18 = load double, ptr %17, align 8, !tbaa !17
  %19 = fmul double %15, %18
  %20 = fneg double %19
  %21 = call double @llvm.fmuladd.f64(double %9, double %12, double %20)
  %22 = load ptr, ptr %6, align 8, !tbaa !15
  %23 = getelementptr inbounds double, ptr %22, i64 0
  store double %21, ptr %23, align 8, !tbaa !17
  %24 = load ptr, ptr %4, align 8, !tbaa !15
  %25 = getelementptr inbounds double, ptr %24, i64 2
  %26 = load double, ptr %25, align 8, !tbaa !17
  %27 = load ptr, ptr %5, align 8, !tbaa !15
  %28 = getelementptr inbounds double, ptr %27, i64 0
  %29 = load double, ptr %28, align 8, !tbaa !17
  %30 = load ptr, ptr %4, align 8, !tbaa !15
  %31 = getelementptr inbounds double, ptr %30, i64 0
  %32 = load double, ptr %31, align 8, !tbaa !17
  %33 = load ptr, ptr %5, align 8, !tbaa !15
  %34 = getelementptr inbounds double, ptr %33, i64 2
  %35 = load double, ptr %34, align 8, !tbaa !17
  %36 = fmul double %32, %35
  %37 = fneg double %36
  %38 = call double @llvm.fmuladd.f64(double %26, double %29, double %37)
  %39 = load ptr, ptr %6, align 8, !tbaa !15
  %40 = getelementptr inbounds double, ptr %39, i64 1
  store double %38, ptr %40, align 8, !tbaa !17
  %41 = load ptr, ptr %4, align 8, !tbaa !15
  %42 = getelementptr inbounds double, ptr %41, i64 0
  %43 = load double, ptr %42, align 8, !tbaa !17
  %44 = load ptr, ptr %5, align 8, !tbaa !15
  %45 = getelementptr inbounds double, ptr %44, i64 1
  %46 = load double, ptr %45, align 8, !tbaa !17
  %47 = load ptr, ptr %4, align 8, !tbaa !15
  %48 = getelementptr inbounds double, ptr %47, i64 1
  %49 = load double, ptr %48, align 8, !tbaa !17
  %50 = load ptr, ptr %5, align 8, !tbaa !15
  %51 = getelementptr inbounds double, ptr %50, i64 0
  %52 = load double, ptr %51, align 8, !tbaa !17
  %53 = fmul double %49, %52
  %54 = fneg double %53
  %55 = call double @llvm.fmuladd.f64(double %43, double %46, double %54)
  %56 = load ptr, ptr %6, align 8, !tbaa !15
  %57 = getelementptr inbounds double, ptr %56, i64 2
  store double %55, ptr %57, align 8, !tbaa !17
  ret void
}