; Function Attrs: mustprogress nofree norecurse nosync nounwind willreturn memory(argmem: readwrite) uwtable
define dso_local void @_ZN3igl5crossEPKdS1_Pd(ptr noundef readonly captures(none) %0, ptr noundef readonly captures(none) %1, ptr noundef writeonly captures(none) initializes((0, 24)) %2) local_unnamed_addr #0 {
  %4 = getelementptr inbounds nuw i8, ptr %0, i64 8
  %5 = load double, ptr %4, align 8, !tbaa !4
  %6 = getelementptr inbounds nuw i8, ptr %1, i64 16
  %7 = load double, ptr %6, align 8, !tbaa !4
  %8 = getelementptr inbounds nuw i8, ptr %0, i64 16
  %9 = load double, ptr %8, align 8, !tbaa !4
  %10 = getelementptr inbounds nuw i8, ptr %1, i64 8
  %11 = load double, ptr %10, align 8, !tbaa !4
  %12 = fneg double %11
  %13 = fmul double %9, %12
  %14 = tail call double @llvm.fmuladd.f64(double %5, double %7, double %13)
  store double %14, ptr %2, align 8, !tbaa !4
  %15 = load double, ptr %8, align 8, !tbaa !4
  %16 = load double, ptr %1, align 8, !tbaa !4
  %17 = load double, ptr %0, align 8, !tbaa !4
  %18 = load double, ptr %6, align 8, !tbaa !4
  %19 = fneg double %18
  %20 = fmul double %17, %19
  %21 = tail call double @llvm.fmuladd.f64(double %15, double %16, double %20)
  %22 = getelementptr inbounds nuw i8, ptr %2, i64 8
  store double %21, ptr %22, align 8, !tbaa !4
  %23 = load double, ptr %0, align 8, !tbaa !4
  %24 = load double, ptr %10, align 8, !tbaa !4
  %25 = load double, ptr %4, align 8, !tbaa !4
  %26 = load double, ptr %1, align 8, !tbaa !4
  %27 = fneg double %26
  %28 = fmul double %25, %27
  %29 = tail call double @llvm.fmuladd.f64(double %23, double %24, double %28)
  %30 = getelementptr inbounds nuw i8, ptr %2, i64 16
  store double %29, ptr %30, align 8, !tbaa !4
  ret void
}